target datalayout = "e-m:e-p270:32:32-p271:32:32-p272:64:64-i64:64-i128:128-f80:128-n8:16:32:64-S128"
target triple = "x86_64-pc-linux-gnu"

; Function Attrs: nounwind uwtable
define i64 @FT_DivFix(i64 noundef %0, i64 noundef %1) #0 {
  %3 = alloca i64, align 8
  %4 = alloca i64, align 8
  %5 = alloca i32, align 4
  %6 = alloca i64, align 8
  %7 = alloca i64, align 8
  %8 = alloca i64, align 8
  %9 = alloca i64, align 8
  store i64 %0, ptr %3, align 8, !tbaa !47
  store i64 %1, ptr %4, align 8, !tbaa !47
  call void @llvm.lifetime.start.p0(i64 4, ptr %5) #10
  store i32 1, ptr %5, align 4, !tbaa !8
  call void @llvm.lifetime.start.p0(i64 8, ptr %6) #10
  call void @llvm.lifetime.start.p0(i64 8, ptr %7) #10
  call void @llvm.lifetime.start.p0(i64 8, ptr %8) #10
  call void @llvm.lifetime.start.p0(i64 8, ptr %9) #10
  br label %10

10:                                               ; preds = %2
  %11 = load i64, ptr %3, align 8, !tbaa !47
  %12 = icmp slt i64 %11, 0
  br i1 %12, label %13, label %18

13:                                               ; preds = %10
  %14 = load i64, ptr %3, align 8, !tbaa !47
  %15 = sub i64 0, %14
  store i64 %15, ptr %6, align 8, !tbaa !47
  %16 = load i32, ptr %5, align 4, !tbaa !8
  %17 = sub nsw i32 0, %16
  store i32 %17, ptr %5, align 4, !tbaa !8
  br label %20

18:                                               ; preds = %10
  %19 = load i64, ptr %3, align 8, !tbaa !47
  store i64 %19, ptr %6, align 8, !tbaa !47
  br label %20

20:                                               ; preds = %18, %13
  br label %21

21:                                               ; preds = %20
  br label %22

22:                                               ; preds = %21
  br label %23

23:                                               ; preds = %22
  %24 = load i64, ptr %4, align 8, !tbaa !47
  %25 = icmp slt i64 %24, 0
  br i1 %25, label %26, label %31

26:                                               ; preds = %23
  %27 = load i64, ptr %4, align 8, !tbaa !47
  %28 = sub i64 0, %27
  store i64 %28, ptr %7, align 8, !tbaa !47
  %29 = load i32, ptr %5, align 4, !tbaa !8
  %30 = sub nsw i32 0, %29
  store i32 %30, ptr %5, align 4, !tbaa !8
  br label %33

31:                                               ; preds = %23
  %32 = load i64, ptr %4, align 8, !tbaa !47
  store i64 %32, ptr %7, align 8, !tbaa !47
  br label %33

33:                                               ; preds = %31, %26
  br label %34

34:                                               ; preds = %33
  br label %35

35:                                               ; preds = %34
  %36 = load i64, ptr %7, align 8, !tbaa !47
  %37 = icmp ugt i64 %36, 0
  br i1 %37, label %38, label %46

38:                                               ; preds = %35
  %39 = load i64, ptr %6, align 8, !tbaa !47
  %40 = shl i64 %39, 16
  %41 = load i64, ptr %7, align 8, !tbaa !47
  %42 = lshr i64 %41, 1
  %43 = add i64 %40, %42
  %44 = load i64, ptr %7, align 8, !tbaa !47
  %45 = udiv i64 %43, %44
  br label %47

46:                                               ; preds = %35
  br label %47

47:                                               ; preds = %46, %38
  %48 = phi i64 [ %45, %38 ], [ 2147483647, %46 ]
  store i64 %48, ptr %8, align 8, !tbaa !47
  %49 = load i64, ptr %8, align 8, !tbaa !47
  store i64 %49, ptr %9, align 8, !tbaa !47
  %50 = load i32, ptr %5, align 4, !tbaa !8
  %51 = icmp slt i32 %50, 0
  br i1 %51, label %52, label %55

52:                                               ; preds = %47
  %53 = load i64, ptr %9, align 8, !tbaa !47
  %54 = sub i64 0, %53
  br label %57

55:                                               ; preds = %47
  %56 = load i64, ptr %9, align 8, !tbaa !47
  br label %57

57:                                               ; preds = %55, %52
  %58 = phi i64 [ %54, %52 ], [ %56, %55 ]
  call void @llvm.lifetime.end.p0(i64 8, ptr %9) #10
  call void @llvm.lifetime.end.p0(i64 8, ptr %8) #10
  call void @llvm.lifetime.end.p0(i64 8, ptr %7) #10
  call void @llvm.lifetime.end.p0(i64 8, ptr %6) #10
  call void @llvm.lifetime.end.p0(i64 4, ptr %5) #10
  ret i64 %58
}