; Function Attrs: mustprogress nofree norecurse nosync nounwind willreturn memory(none) uwtable
define i64 @FT_DivFix(i64 noundef %0, i64 noundef %1) local_unnamed_addr #3 {
  %.not = icmp eq i64 %1, 0
  br i1 %.not, label %8, label %3

3:                                                ; preds = %2
  %.017 = tail call i64 @llvm.abs.i64(i64 %1, i1 false)
  %.016 = tail call i64 @llvm.abs.i64(i64 %0, i1 false)
  %4 = shl i64 %.016, 16
  %5 = lshr i64 %.017, 1
  %6 = add i64 %5, %4
  %7 = udiv i64 %6, %.017
  br label %8

8:                                                ; preds = %2, %3
  %9 = phi i64 [ %7, %3 ], [ 2147483647, %2 ]
  %10 = xor i64 %1, %0
  %11 = icmp slt i64 %10, 0
  %12 = sub i64 0, %9
  %13 = select i1 %11, i64 %12, i64 %9
  ret i64 %13
}